target datalayout = "e-m:e-p270:32:32-p271:32:32-p272:64:64-i64:64-i128:128-f80:128-n8:16:32:64-S128"
target triple = "x86_64-pc-linux-gnu"

%struct._object = type { %union.anon, ptr }
%union.anon = type { i64 }
%struct.PyMutex = type { i8 }
%struct._queues = type { ptr, ptr, i64, i64 }
%struct.idarg_int64_converter_data = type { ptr, i64 }
%struct.globals = type { %struct.PyMutex, i32, %struct._queues }

@_globals = internal global { %struct.PyMutex, [3 x i8], i32, %struct._queues } zeroinitializer, align 8
@queuesmod_destroy.kwlist = internal global [2 x ptr] [ptr @.str.28, ptr null], align 16
@.str.29 = private unnamed_addr constant [11 x i8] c"O&:destroy\00", align 1
@_Py_NoneStruct = external global %struct._object, align 8

; Function Attrs: nounwind uwtable
define internal ptr @queuesmod_destroy(ptr noundef %0, ptr noundef %1, ptr noundef %2) #0 {
  %4 = alloca ptr, align 8
  %5 = alloca ptr, align 8
  %6 = alloca ptr, align 8
  %7 = alloca ptr, align 8
  %8 = alloca %struct.idarg_int64_converter_data, align 8
  %9 = alloca i32, align 4
  %10 = alloca i64, align 8
  %11 = alloca i32, align 4
  store ptr %0, ptr %5, align 8, !tbaa !3
  store ptr %1, ptr %6, align 8, !tbaa !3
  store ptr %2, ptr %7, align 8, !tbaa !3
  call void @llvm.lifetime.start.p0(i64 16, ptr %8) #8
  call void @llvm.memset.p0.i64(ptr align 8 %8, i8 0, i64 16, i1 false)
  %12 = load ptr, ptr %6, align 8, !tbaa !3
  %13 = load ptr, ptr %7, align 8, !tbaa !3
  %14 = call i32 (ptr, ptr, ptr, ptr, ...) @PyArg_ParseTupleAndKeywords(ptr noundef %12, ptr noundef %13, ptr noundef @.str.29, ptr noundef @queuesmod_destroy.kwlist, ptr noundef @qidarg_converter, ptr noundef %8)
  %15 = icmp ne i32 %14, 0
  br i1 %15, label %17, label %16

16:                                               ; preds = %3
  store ptr null, ptr %4, align 8
  store i32 1, ptr %9, align 4
  br label %30

17:                                               ; preds = %3
  call void @llvm.lifetime.start.p0(i64 8, ptr %10) #8
  %18 = getelementptr inbounds nuw %struct.idarg_int64_converter_data, ptr %8, i32 0, i32 1
  %19 = load i64, ptr %18, align 8, !tbaa !13
  store i64 %19, ptr %10, align 8, !tbaa !11
  call void @llvm.lifetime.start.p0(i64 4, ptr %11) #8
  %20 = load i64, ptr %10, align 8, !tbaa !11
  %21 = call i32 @queue_destroy(ptr noundef getelementptr inbounds nuw (%struct.globals, ptr @_globals, i32 0, i32 2), i64 noundef %20)
  store i32 %21, ptr %11, align 4, !tbaa !9
  %22 = load i32, ptr %11, align 4, !tbaa !9
  %23 = load ptr, ptr %5, align 8, !tbaa !3
  %24 = load i64, ptr %10, align 8, !tbaa !11
  %25 = call i32 @handle_queue_error(i32 noundef %22, ptr noundef %23, i64 noundef %24)
  %26 = icmp ne i32 %25, 0
  br i1 %26, label %27, label %28

27:                                               ; preds = %17
  store ptr null, ptr %4, align 8
  store i32 1, ptr %9, align 4
  br label %29

28:                                               ; preds = %17
  store ptr @_Py_NoneStruct, ptr %4, align 8
  store i32 1, ptr %9, align 4
  br label %29

29:                                               ; preds = %28, %27
  call void @llvm.lifetime.end.p0(i64 4, ptr %11) #8
  call void @llvm.lifetime.end.p0(i64 8, ptr %10) #8
  br label %30

30:                                               ; preds = %29, %16
  call void @llvm.lifetime.end.p0(i64 16, ptr %8) #8
  %31 = load ptr, ptr %4, align 8
  ret ptr %31
}